target datalayout = "e-m:e-p270:32:32-p271:32:32-p272:64:64-i64:64-i128:128-f80:128-n8:16:32:64-S128"
target triple = "x86_64-pc-linux-gnu"

@showprogress = dso_local global i8 0, align 1
@fetch_size = dso_local global i64 0, align 8
@fetch_done = dso_local global i64 0, align 8
@progress_report.last_progress_report = internal global i64 0, align 8
@.str.43 = private unnamed_addr constant [4 x i8] c"%lu\00", align 1
@stderr = external global ptr, align 8
@.str.44 = private unnamed_addr constant [24 x i8] c"%*s/%s kB (%d%%) copied\00", align 1

; Function Attrs: nounwind uwtable
define dso_local void @progress_report(i1 noundef zeroext %0) #0 {
  %2 = alloca i8, align 1
  %3 = alloca i32, align 4
  %4 = alloca [32 x i8], align 16
  %5 = alloca [32 x i8], align 16
  %6 = alloca i64, align 8
  %7 = alloca i32, align 4
  %8 = zext i1 %0 to i8
  store i8 %8, ptr %2, align 1
  call void @llvm.lifetime.start.p0(i64 4, ptr %3) #9
  call void @llvm.lifetime.start.p0(i64 32, ptr %4) #9
  call void @llvm.lifetime.start.p0(i64 32, ptr %5) #9
  call void @llvm.lifetime.start.p0(i64 8, ptr %6) #9
  %9 = load i8, ptr @showprogress, align 1, !range !6, !noundef !7
  %10 = trunc i8 %9 to i1
  br i1 %10, label %12, label %11

11:                                               ; preds = %1
  store i32 1, ptr %7, align 4
  br label %72

12:                                               ; preds = %1
  %13 = call i64 @time(ptr noundef null) #9
  store i64 %13, ptr %6, align 8
  %14 = load i64, ptr %6, align 8
  %15 = load i64, ptr @progress_report.last_progress_report, align 8
  %16 = icmp eq i64 %14, %15
  br i1 %16, label %17, label %21

17:                                               ; preds = %12
  %18 = load i8, ptr %2, align 1, !range !6, !noundef !7
  %19 = trunc i8 %18 to i1
  br i1 %19, label %21, label %20

20:                                               ; preds = %17
  store i32 1, ptr %7, align 4
  br label %72

21:                                               ; preds = %17, %12
  %22 = load i64, ptr %6, align 8
  store i64 %22, ptr @progress_report.last_progress_report, align 8
  %23 = load i64, ptr @fetch_size, align 8
  %24 = icmp ne i64 %23, 0
  br i1 %24, label %25, label %31

25:                                               ; preds = %21
  %26 = load i64, ptr @fetch_done, align 8
  %27 = mul i64 %26, 100
  %28 = load i64, ptr @fetch_size, align 8
  %29 = udiv i64 %27, %28
  %30 = trunc i64 %29 to i32
  br label %32

31:                                               ; preds = %21
  br label %32

32:                                               ; preds = %31, %25
  %33 = phi i32 [ %30, %25 ], [ 0, %31 ]
  store i32 %33, ptr %3, align 4
  %34 = load i32, ptr %3, align 4
  %35 = icmp sgt i32 %34, 100
  br i1 %35, label %36, label %37

36:                                               ; preds = %32
  store i32 100, ptr %3, align 4
  br label %37

37:                                               ; preds = %36, %32
  %38 = load i64, ptr @fetch_done, align 8
  %39 = load i64, ptr @fetch_size, align 8
  %40 = icmp ugt i64 %38, %39
  br i1 %40, label %41, label %43

41:                                               ; preds = %37
  %42 = load i64, ptr @fetch_done, align 8
  store i64 %42, ptr @fetch_size, align 8
  br label %43

43:                                               ; preds = %41, %37
  %44 = getelementptr inbounds [32 x i8], ptr %4, i64 0, i64 0
  %45 = load i64, ptr @fetch_done, align 8
  %46 = udiv i64 %45, 1024
  %47 = call i32 (ptr, i64, ptr, ...) @pg_snprintf(ptr noundef %44, i64 noundef 32, ptr noundef @.str.43, i64 noundef %46)
  %48 = getelementptr inbounds [32 x i8], ptr %5, i64 0, i64 0
  %49 = load i64, ptr @fetch_size, align 8
  %50 = udiv i64 %49, 1024
  %51 = call i32 (ptr, i64, ptr, ...) @pg_snprintf(ptr noundef %48, i64 noundef 32, ptr noundef @.str.43, i64 noundef %50)
  %52 = load ptr, ptr @stderr, align 8
  %53 = getelementptr inbounds [32 x i8], ptr %5, i64 0, i64 0
  %54 = call i64 @strlen(ptr noundef %53) #10
  %55 = trunc i64 %54 to i32
  %56 = getelementptr inbounds [32 x i8], ptr %4, i64 0, i64 0
  %57 = getelementptr inbounds [32 x i8], ptr %5, i64 0, i64 0
  %58 = load i32, ptr %3, align 4
  %59 = call i32 (ptr, ptr, ...) @pg_fprintf(ptr noundef %52, ptr noundef @.str.44, i32 noundef %55, ptr noundef %56, ptr noundef %57, i32 noundef %58)
  %60 = load i8, ptr %2, align 1, !range !6, !noundef !7
  %61 = trunc i8 %60 to i1
  br i1 %61, label %67, label %62

62:                                               ; preds = %43
  %63 = load ptr, ptr @stderr, align 8
  %64 = call i32 @fileno(ptr noundef %63) #9
  %65 = call i32 @isatty(i32 noundef %64) #9
  %66 = icmp ne i32 %65, 0
  br label %67

67:                                               ; preds = %62, %43
  %68 = phi i1 [ false, %43 ], [ %66, %62 ]
  %69 = select i1 %68, i32 13, i32 10
  %70 = load ptr, ptr @stderr, align 8
  %71 = call i32 @fputc(i32 noundef %69, ptr noundef %70)
  store i32 0, ptr %7, align 4
  br label %72

72:                                               ; preds = %67, %20, %11
  call void @llvm.lifetime.end.p0(i64 8, ptr %6) #9
  call void @llvm.lifetime.end.p0(i64 32, ptr %5) #9
  call void @llvm.lifetime.end.p0(i64 32, ptr %4) #9
  call void @llvm.lifetime.end.p0(i64 4, ptr %3) #9
  %73 = load i32, ptr %7, align 4
  switch i32 %73, label %75 [
    i32 0, label %74
    i32 1, label %74
  ]

74:                                               ; preds = %72, %72
  ret void

75:                                               ; preds = %72
  unreachable
}