; Function Attrs: nounwind uwtable
define dso_local void @progress_report(i1 noundef zeroext %0) local_unnamed_addr #0 {
  %2 = alloca [32 x i8], align 16
  %3 = alloca [32 x i8], align 16
  call void @llvm.lifetime.start.p0(i64 32, ptr nonnull %2) #12
  call void @llvm.lifetime.start.p0(i64 32, ptr nonnull %3) #12
  %4 = load i8, ptr @showprogress, align 1, !range !7, !noundef !8
  %5 = trunc nuw i8 %4 to i1
  br i1 %5, label %6, label %39

6:                                                ; preds = %1
  %7 = tail call i64 @time(ptr noundef null) #12
  %8 = load i64, ptr @progress_report.last_progress_report, align 8
  %9 = icmp ne i64 %7, %8
  %brmerge = or i1 %0, %9
  br i1 %brmerge, label %10, label %39

10:                                               ; preds = %6
  store i64 %7, ptr @progress_report.last_progress_report, align 8
  %11 = load i64, ptr @fetch_size, align 8
  %.not = icmp eq i64 %11, 0
  %.pre = load i64, ptr @fetch_done, align 8
  br i1 %.not, label %16, label %12

12:                                               ; preds = %10
  %13 = mul i64 %.pre, 100
  %14 = udiv i64 %13, %11
  %15 = trunc i64 %14 to i32
  br label %16

16:                                               ; preds = %10, %12
  %17 = phi i32 [ %15, %12 ], [ 0, %10 ]
  %spec.store.select = tail call i32 @llvm.smin.i32(i32 %17, i32 100)
  %18 = icmp ugt i64 %.pre, %11
  br i1 %18, label %19, label %20

19:                                               ; preds = %16
  store i64 %.pre, ptr @fetch_size, align 8
  br label %20

20:                                               ; preds = %19, %16
  %21 = lshr i64 %.pre, 10
  %22 = call i32 (ptr, i64, ptr, ...) @pg_snprintf(ptr noundef nonnull %2, i64 noundef 32, ptr noundef nonnull @.str.43, i64 noundef %21) #12
  %23 = load i64, ptr @fetch_size, align 8
  %24 = lshr i64 %23, 10
  %25 = call i32 (ptr, i64, ptr, ...) @pg_snprintf(ptr noundef nonnull %3, i64 noundef 32, ptr noundef nonnull @.str.43, i64 noundef %24) #12
  %26 = load ptr, ptr @stderr, align 8
  %27 = call i64 @strlen(ptr noundef nonnull dereferenceable(1) %3) #13
  %28 = trunc i64 %27 to i32
  %29 = call i32 (ptr, ptr, ...) @pg_fprintf(ptr noundef %26, ptr noundef nonnull @.str.44, i32 noundef %28, ptr noundef nonnull %2, ptr noundef nonnull %3, i32 noundef %spec.store.select) #12
  br i1 %0, label %35, label %30

30:                                               ; preds = %20
  %31 = load ptr, ptr @stderr, align 8
  %32 = call i32 @fileno(ptr noundef %31) #12
  %33 = call i32 @isatty(i32 noundef %32) #12
  %.not7 = icmp eq i32 %33, 0
  %34 = select i1 %.not7, i32 10, i32 13
  br label %35

35:                                               ; preds = %30, %20
  %36 = phi i32 [ 10, %20 ], [ %34, %30 ]
  %37 = load ptr, ptr @stderr, align 8
  %38 = call i32 @fputc(i32 noundef %36, ptr noundef %37)
  br label %39

39:                                               ; preds = %6, %1, %35
  call void @llvm.lifetime.end.p0(i64 32, ptr nonnull %3) #12
  call void @llvm.lifetime.end.p0(i64 32, ptr nonnull %2) #12
  ret void
}